(dp0
S'p681'
p1
(dp2
S'1'
p3
(dp4
S'p472'
p5
(dp6
g3
(dp7
S'p658'
p8
(dp9
g3
(dp10
S'p907'
p11
(dp12
g3
(dp13
S'p776'
p14
(dp15
g3
(dp16
S'p520'
p17
(dp18
g3
(dp19
S'p19'
p20
(dp21
g3
S'4'
p22
sS'0'
p23
g23
sssg23
S'8'
p24
sssg23
(dp25
S'p267'
p26
(dp27
g3
(dp28
S'p14'
p29
(dp30
g3
g22
sg23
g3
sssg23
S'7'
p31
sssssg23
(dp32
S'p647'
p33
(dp34
g3
(dp35
S'p24'
p36
(dp37
g3
g31
sg23
g22
sssg23
(dp38
S'p15'
p39
(dp40
g3
(dp41
g29
(dp42
g3
g31
sg23
S'9'
p43
sssg23
(dp44
S'p18'
p45
(dp46
g3
g3
sg23
g23
sssssssssg23
(dp47
S'p278'
p48
(dp49
g3
(dp50
S'p496'
p51
(dp52
g3
(dp53
g29
(dp54
g3
g43
sg23
g24
sssg23
g23
sssg23
(dp55
S'p334'
p56
(dp57
g3
g22
sg23
(dp58
g39
(dp59
g3
S'6'
p60
sg23
g23
sssssssssg23
(dp61
S'p371'
p62
(dp63
g3
(dp64
S'p428'
p65
(dp66
g3
(dp67
S'p752'
p68
(dp69
g3
(dp70
S'p464'
p71
(dp72
g3
(dp73
S'p272'
p74
(dp75
g3
(dp76
S'p561'
p77
(dp78
g3
(dp79
S'p81'
p80
(dp81
g3
g3
sg23
g24
sssg23
g24
sssg23
g24
sssg23
g22
sssg23
(dp82
S'p504'
p83
(dp84
g3
(dp85
S'p11'
p86
(dp87
g3
S'5'
p88
sg23
S'3'
p89
sssg23
(dp90
S'p427'
p91
(dp92
g3
g24
sg23
(dp93
S'p52'
p94
(dp95
g3
g24
sg23
S'2'
p96
sssssssssg23
(dp97
S'p915'
p98
(dp99
g3
(dp100
S'p692'
p101
(dp102
g3
(dp103
S'p841'
p104
(dp105
g3
g24
sg23
(dp106
g45
(dp107
g3
g60
sg23
(dp108
g20
(dp109
g3
g22
sg23
g89
sssssssg23
(dp110
g91
(dp111
g3
(dp112
S'p13'
p113
(dp114
g3
g23
sg23
g24
sssg23
g96
sssssg23
(dp115
S'p299'
p116
(dp117
g3
(dp118
S'p17'
p119
(dp120
g3
g24
sg23
g22
sssg23
g31
sssssssg23
(dp121
S'p918'
p122
(dp123
g3
(dp124
S'p871'
p125
(dp126
g3
(dp127
S'p564'
p128
(dp129
g3
(dp130
S'p10'
p131
(dp132
g3
g60
sg23
(dp133
g39
(dp134
g3
g24
sg23
g22
sssssg23
g96
sssg23
(dp135
S'p310'
p136
(dp137
g3
(dp138
S'p109'
p139
(dp140
g3
g24
sg23
(dp141
S'p12'
p142
(dp143
g3
g23
sg23
g22
sssssg23
(dp144
S'p911'
p145
(dp146
g3
g60
sg23
(dp147
S'p44'
p148
(dp149
g3
g24
sg23
g22
sssssssssg23
(dp150
S'p723'
p151
(dp152
g3
(dp153
S'p395'
p154
(dp155
g3
g22
sg23
(dp156
S'p21'
p157
(dp158
g3
g31
sg23
g24
sssssg23
(dp159
S'p213'
p160
(dp161
g3
(dp162
S'p304'
p163
(dp164
g3
g24
sg23
g88
sssg23
(dp165
S'p211'
p166
(dp167
g3
g3
sg23
g60
sssssssssssssg23
(dp168
S'p362'
p169
(dp170
g3
(dp171
S'p342'
p172
(dp173
g3
(dp174
S'p622'
p175
(dp176
g3
(dp177
S'p748'
p178
(dp179
g3
(dp180
S'p946'
p181
(dp182
g3
(dp183
S'p270'
p184
(dp185
g3
(dp186
S'p296'
p187
(dp188
g3
g24
sg23
g3
sssg23
(dp189
S'p558'
p190
(dp191
g3
g24
sg23
g96
sssssg23
(dp192
S'p80'
p193
(dp194
g3
(dp195
S'p176'
p196
(dp197
g3
g31
sg23
g43
sssg23
(dp198
g20
(dp199
g3
g24
sg23
g22
sssssssg23
(dp200
S'p148'
p201
(dp202
g3
(dp203
S'p303'
p204
(dp205
g3
(dp206
S'p305'
p207
(dp208
g3
g3
sg23
g22
sssg23
(dp209
S'p687'
p210
(dp211
g3
g31
sg23
(dp212
S'p394'
p213
(dp214
g3
g43
sg23
g89
sssssssg23
(dp215
S'p105'
p216
(dp217
g3
(dp218
S'p9'
p219
(dp220
g3
g88
sg23
g43
sssg23
g22
sssssssg23
(dp221
S'p107'
p222
(dp223
g3
(dp224
S'p463'
p225
(dp226
g3
(dp227
S'p112'
p228
(dp229
g3
(dp230
g213
(dp231
g3
g43
sg23
(dp232
g142
(dp233
g3
g89
sg23
g43
sssssg23
(dp234
g219
(dp235
g3
g43
sg23
g22
sssssg23
(dp236
S'p921'
p237
(dp238
g3
(dp239
g204
(dp240
g3
g43
sg23
g96
sssg23
(dp241
S'p565'
p242
(dp243
g3
g43
sg23
(dp244
g131
(dp245
g3
g23
sg23
g88
sssssssssg23
(dp246
g166
(dp247
g3
(dp248
S'p949'
p249
(dp250
g3
g3
sg23
g43
sssg23
(dp251
S'p120'
p252
(dp253
g3
(dp254
S'p172'
p255
(dp256
g3
g43
sg23
(dp257
g20
(dp258
g3
g22
sg23
g43
sssssg23
g22
sssssssssg23
(dp259
g207
(dp260
g3
(dp261
S'p169'
p262
(dp263
g3
(dp264
S'p695'
p265
(dp266
g3
(dp267
S'p275'
p268
(dp269
g3
(dp270
S'p361'
p271
(dp272
g3
(dp273
S'p199'
p274
(dp275
g3
g43
sg23
g3
sssg23
g89
sssg23
g88
sssg23
(dp276
g237
(dp277
g3
g96
sg23
(dp278
S'p336'
p279
(dp280
g3
(dp281
g219
(dp282
g3
(dp283
S'p8'
p284
(dp285
g3
g31
sg23
g96
sssg23
g3
sssg23
(dp286
S'p238'
p287
(dp288
g3
g88
sg23
g24
sssssssssg23
(dp289
S'p471'
p290
(dp291
g3
(dp292
S'p106'
p293
(dp294
g3
g88
sg23
(dp295
g157
(dp296
g3
g43
sg23
g22
sssssg23
(dp297
S'p39'
p298
(dp299
g3
g89
sg23
g3
sssssssg23
(dp300
S'p116'
p301
(dp302
g3
(dp303
S'p308'
p304
(dp305
g3
(dp306
g157
(dp307
g3
g43
sg23
g24
sssg23
(dp308
S'p375'
p309
(dp310
g3
(dp311
g39
(dp312
g3
g43
sg23
g22
sssg23
g88
sssssg23
(dp313
S'p887'
p314
(dp315
g3
(dp316
S'p146'
p317
(dp318
g3
(dp319
g39
(dp320
g3
(dp321
g113
(dp322
g3
g43
sg23
g60
sssg23
(dp323
g142
(dp324
g3
g96
sg23
g24
sssssg23
g3
sssg23
(dp325
S'p137'
p326
(dp327
g3
(dp328
g39
(dp329
g3
g89
sg23
g88
sssg23
g22
sssssssssssg23
(dp330
g98
(dp331
g3
(dp332
S'p750'
p333
(dp334
g3
(dp335
S'p201'
p336
(dp337
g3
(dp338
S'p919'
p339
(dp340
g3
(dp341
S'p631'
p342
(dp343
g3
g24
sg23
g96
sssg23
(dp344
S'p629'
p345
(dp346
g3
(dp347
S'p16'
p348
(dp349
g3
(dp350
g45
(dp351
g3
g89
sg23
g23
sssg23
(dp352
g20
(dp353
g3
g31
sg23
g3
sssssg23
(dp354
S'p43'
p355
(dp356
g3
(dp357
g20
(dp358
g3
g88
sg23
g96
sssg23
g24
sssssssg23
(dp359
S'p432'
p360
(dp361
g3
g3
sg23
(dp362
g142
(dp363
g3
g96
sg23
g60
sssssssg23
(dp364
S'p939'
p365
(dp366
g3
(dp367
S'p440'
p368
(dp369
g3
(dp370
S'p690'
p371
(dp372
g3
(dp373
S'p234'
p374
(dp375
g3
g96
sg23
g89
sssg23
(dp376
S'p212'
p377
(dp378
g3
g43
sg23
g88
sssssg23
(dp379
g265
(dp380
g3
(dp381
S'p300'
p382
(dp383
g3
(dp384
S'p243'
p385
(dp386
g3
(dp387
g184
(dp388
g3
g89
sg23
g43
sssg23
g88
sssg23
(dp389
S'p391'
p390
(dp391
g3
(dp392
S'p369'
p393
(dp394
g3
g89
sg23
(dp395
g113
(dp396
g3
g43
sg23
g88
sssssg23
g89
sssssg23
(dp397
S'p204'
p398
(dp399
g3
(dp400
S'p210'
p401
(dp402
g3
(dp403
S'p150'
p404
(dp405
g3
g89
sg23
g96
sssg23
(dp406
S'p118'
p407
(dp408
g3
g88
sg23
(dp409
g131
(dp410
g3
g3
sg23
(dp411
g142
(dp412
g3
g24
sg23
g89
sssssssssg23
(dp413
S'p104'
p414
(dp415
g3
g89
sg23
g24
sssssssssg23
(dp416
S'p536'
p417
(dp418
g3
(dp419
S'p20'
p420
(dp421
g3
g31
sg23
g43
sssg23
(dp422
g222
(dp423
g3
(dp424
S'p22'
p425
(dp426
g3
g88
sg23
g89
sssg23
g3
sssssssssg23
(dp427
S'p332'
p428
(dp429
g3
(dp430
g45
(dp431
g3
(dp432
S'p175'
p433
(dp434
g3
g88
sg23
(dp435
g113
(dp436
g3
g24
sg23
g43
sssssg23
g3
sssg23
(dp437
S'p656'
p438
(dp439
g3
(dp440
g271
(dp441
g3
(dp442
g157
(dp443
g3
g31
sg23
g43
sssg23
(dp444
S'p133'
p445
(dp446
g3
g89
sg23
g31
sssssg23
(dp447
S'p852'
p448
(dp449
g3
g89
sg23
(dp450
S'p264'
p451
(dp452
g3
g43
sg23
(dp453
S'p53'
p454
(dp455
g3
g31
sg23
g88
ssssssssssssssss.